target datalayout = "e-m:e-p270:32:32-p271:32:32-p272:64:64-i64:64-i128:128-f80:128-n8:16:32:64-S128"
target triple = "x86_64-pc-linux-gnu"

%struct._zval_struct = type { %union._zend_value, %union.anon.4, %union.anon.7 }
%union._zend_value = type { i64 }
%union.anon.4 = type { i32 }
%union.anon.7 = type { i32 }

; Function Attrs: alwaysinline nounwind uwtable
define internal i32 @add_next_index_zval(ptr noundef %0, ptr noundef %1) #5 {
  %3 = alloca ptr, align 8
  %4 = alloca ptr, align 8
  store ptr %0, ptr %3, align 8, !tbaa !10
  store ptr %1, ptr %4, align 8, !tbaa !10
  %5 = load ptr, ptr %3, align 8, !tbaa !10
  %6 = getelementptr inbounds nuw %struct._zval_struct, ptr %5, i32 0, i32 0
  %7 = load ptr, ptr %6, align 8, !tbaa !12
  %8 = load ptr, ptr %4, align 8, !tbaa !10
  %9 = call ptr @zend_hash_next_index_insert(ptr noundef %7, ptr noundef %8)
  %10 = icmp ne ptr %9, null
  %11 = select i1 %10, i32 0, i32 -1
  ret i32 %11
}

; Function Attrs: nounwind uwtable
define internal i32 @php_output_stack_apply_status(ptr noundef %0, ptr noundef %1) #0 {
  %3 = alloca ptr, align 8
  %4 = alloca ptr, align 8
  %5 = alloca ptr, align 8
  %6 = alloca %struct._zval_struct, align 8
  %7 = alloca ptr, align 8
  store ptr %0, ptr %3, align 8, !tbaa !4
  store ptr %1, ptr %4, align 8, !tbaa !4
  call void @llvm.lifetime.start.p0(i64 8, ptr %5) #15
  %8 = load ptr, ptr %3, align 8, !tbaa !4
  %9 = load ptr, ptr %8, align 8, !tbaa !55
  store ptr %9, ptr %5, align 8, !tbaa !55
  call void @llvm.lifetime.start.p0(i64 16, ptr %6) #15
  call void @llvm.lifetime.start.p0(i64 8, ptr %7) #15
  %10 = load ptr, ptr %4, align 8, !tbaa !4
  store ptr %10, ptr %7, align 8, !tbaa !10
  %11 = load ptr, ptr %7, align 8, !tbaa !10
  %12 = load ptr, ptr %5, align 8, !tbaa !55
  %13 = call ptr @php_output_handler_status(ptr noundef %12, ptr noundef %6)
  %14 = call i32 @add_next_index_zval(ptr noundef %11, ptr noundef %13)
  call void @llvm.lifetime.end.p0(i64 8, ptr %7) #15
  call void @llvm.lifetime.end.p0(i64 16, ptr %6) #15
  call void @llvm.lifetime.end.p0(i64 8, ptr %5) #15
  ret i32 0
}