; Function Attrs: nounwind uwtable
define internal noundef i32 @php_output_stack_apply_status(ptr noundef readonly captures(none) %0, ptr noundef readonly captures(none) %1) #0 {
  %3 = alloca %struct._zval_struct, align 8
  %4 = load ptr, ptr %0, align 8, !tbaa !18
  call void @llvm.lifetime.start.p0(i64 16, ptr nonnull %3) #22
  %5 = call fastcc ptr @php_output_handler_status(ptr noundef %4, ptr noundef nonnull %3)
  %6 = load ptr, ptr %1, align 8, !tbaa !8
  %7 = call ptr @zend_hash_next_index_insert(ptr noundef %6, ptr noundef nonnull %3) #22
  call void @llvm.lifetime.end.p0(i64 16, ptr nonnull %3) #22
  ret i32 0
}